target datalayout = "e-m:e-p270:32:32-p271:32:32-p272:64:64-i64:64-i128:128-f80:128-n8:16:32:64-S128"
target triple = "x86_64-pc-linux-gnu"

%struct.cl_fmap = type { ptr, ptr, ptr, i64, i64, i64, i64, i8, i8, i8, i64, i64, i64, i64, ptr, ptr, ptr, ptr, ptr, ptr, ptr, i8, [16 x i8], i8, [20 x i8], i8, [32 x i8], ptr, ptr }
%struct.gpt_header = type <{ i64, i32, i32, i32, i32, i64, i64, i64, i64, [16 x i8], i64, i32, i32, i32 }>
%struct.cli_ctx_tag = type { ptr, ptr, ptr, ptr, ptr, ptr, ptr, i64, ptr, i32, i32, ptr, i32, i32, ptr, [16 x i8], ptr, ptr, ptr, ptr, ptr, ptr, %struct.timeval, i8, i8 }
%struct.timeval = type { i64, i64 }
%struct.partition_intersection_list = type { ptr, i64 }
%struct.gpt_partition_entry = type { [16 x i8], [16 x i8], i64, i64, i64, [36 x i16] }
%struct.cl_engine = type { i32, i32, i32, [2 x i32], i32, i32, i32, ptr, i32, i64, i32, i32, i64, i64, i32, i32, i32, i32, ptr, ptr, ptr, ptr, ptr, ptr, ptr, ptr, ptr, ptr, ptr, ptr, ptr, ptr, ptr, ptr, ptr, ptr, ptr, i64, ptr, %struct.crtmgr, ptr, ptr, ptr, ptr, ptr, ptr, ptr, ptr, ptr, ptr, ptr, ptr, ptr, ptr, ptr, ptr, ptr, %struct.cli_all_bc, [7 x ptr], [7 x i32], i32, i32, i32, i32, i64, i64, i64, i64, i64, ptr, ptr, ptr, ptr, ptr, ptr, ptr, ptr, ptr, i32, i32, i32, i64, i64, i64, ptr }
%struct.crtmgr = type { ptr, i32 }
%struct.cli_all_bc = type { ptr, i32, ptr, %struct.cli_environment, i32 }
%struct.cli_environment = type { i32, i32, i32, i32, i32, i32, i32, [65 x i8], [65 x i8], [65 x i8], [65 x i8], [65 x i8], [65 x i8], [65 x i8], i8, i8, i8, i8, i8, i8, i8, i8, i8 }

@.str.27 = private unnamed_addr constant [42 x i8] c"cli_scangpt: Invalid GPT partition entry\0A\00", align 1
@.str.54 = private unnamed_addr constant [61 x i8] c"cli_scangpt: detected intersection with partitions [%u, %u]\0A\00", align 1
@.str.55 = private unnamed_addr constant [36 x i8] c"Heuristics.GPTPartitionIntersection\00", align 1

; Function Attrs: nounwind uwtable
define internal ptr @fmap_need_off_once(ptr noundef %0, i64 noundef %1, i64 noundef %2) #0 {
  %4 = alloca ptr, align 8
  %5 = alloca i64, align 8
  %6 = alloca i64, align 8
  store ptr %0, ptr %4, align 8
  store i64 %1, ptr %5, align 8
  store i64 %2, ptr %6, align 8
  %7 = load ptr, ptr %4, align 8
  %8 = getelementptr inbounds %struct.cl_fmap, ptr %7, i32 0, i32 15
  %9 = load ptr, ptr %8, align 8
  %10 = load ptr, ptr %4, align 8
  %11 = load i64, ptr %5, align 8
  %12 = load i64, ptr %6, align 8
  %13 = call ptr %9(ptr noundef %10, i64 noundef %11, i64 noundef %12, i32 noundef 0)
  ret ptr %13
}

; Function Attrs: nounwind uwtable
define internal i64 @fmap_readn(ptr noundef %0, ptr noundef %1, i64 noundef %2, i64 noundef %3) #0 {
  %5 = alloca i64, align 8
  %6 = alloca ptr, align 8
  %7 = alloca ptr, align 8
  %8 = alloca i64, align 8
  %9 = alloca i64, align 8
  %10 = alloca ptr, align 8
  store ptr %0, ptr %6, align 8
  store ptr %1, ptr %7, align 8
  store i64 %2, ptr %8, align 8
  store i64 %3, ptr %9, align 8
  %11 = load i64, ptr %8, align 8
  %12 = load ptr, ptr %6, align 8
  %13 = getelementptr inbounds %struct.cl_fmap, ptr %12, i32 0, i32 13
  %14 = load i64, ptr %13, align 8
  %15 = icmp eq i64 %11, %14
  br i1 %15, label %19, label %16

16:                                               ; preds = %4
  %17 = load i64, ptr %9, align 8
  %18 = icmp ne i64 %17, 0
  br i1 %18, label %20, label %19

19:                                               ; preds = %16, %4
  store i64 0, ptr %5, align 8
  br label %60

20:                                               ; preds = %16
  %21 = load i64, ptr %8, align 8
  %22 = load ptr, ptr %6, align 8
  %23 = getelementptr inbounds %struct.cl_fmap, ptr %22, i32 0, i32 13
  %24 = load i64, ptr %23, align 8
  %25 = icmp ugt i64 %21, %24
  br i1 %25, label %26, label %27

26:                                               ; preds = %20
  store i64 -1, ptr %5, align 8
  br label %60

27:                                               ; preds = %20
  %28 = load i64, ptr %9, align 8
  %29 = load ptr, ptr %6, align 8
  %30 = getelementptr inbounds %struct.cl_fmap, ptr %29, i32 0, i32 13
  %31 = load i64, ptr %30, align 8
  %32 = load i64, ptr %8, align 8
  %33 = sub i64 %31, %32
  %34 = icmp ugt i64 %28, %33
  br i1 %34, label %35, label %41

35:                                               ; preds = %27
  %36 = load ptr, ptr %6, align 8
  %37 = getelementptr inbounds %struct.cl_fmap, ptr %36, i32 0, i32 13
  %38 = load i64, ptr %37, align 8
  %39 = load i64, ptr %8, align 8
  %40 = sub i64 %38, %39
  store i64 %40, ptr %9, align 8
  br label %41

41:                                               ; preds = %35, %27
  %42 = load ptr, ptr %6, align 8
  %43 = load i64, ptr %8, align 8
  %44 = load i64, ptr %9, align 8
  %45 = call ptr @fmap_need_off_once(ptr noundef %42, i64 noundef %43, i64 noundef %44)
  store ptr %45, ptr %10, align 8
  %46 = load ptr, ptr %10, align 8
  %47 = icmp ne ptr %46, null
  br i1 %47, label %49, label %48

48:                                               ; preds = %41
  store i64 -1, ptr %5, align 8
  br label %60

49:                                               ; preds = %41
  %50 = load ptr, ptr %7, align 8
  %51 = load ptr, ptr %10, align 8
  %52 = load i64, ptr %9, align 8
  call void @llvm.memcpy.p0.p0.i64(ptr align 1 %50, ptr align 1 %51, i64 %52, i1 false)
  %53 = load i64, ptr %9, align 8
  %54 = icmp ule i64 %53, 2147483647
  br i1 %54, label %55, label %57

55:                                               ; preds = %49
  %56 = load i64, ptr %9, align 8
  br label %58

57:                                               ; preds = %49
  br label %58

58:                                               ; preds = %57, %55
  %59 = phi i64 [ %56, %55 ], [ -1, %57 ]
  store i64 %59, ptr %5, align 8
  br label %60

60:                                               ; preds = %58, %48, %26, %19
  %61 = load i64, ptr %5, align 8
  ret i64 %61
}

; Function Attrs: nounwind uwtable
define internal i32 @gpt_partition_intersection(ptr noundef %0, ptr noundef byval(%struct.gpt_header) align 8 %1, i64 noundef %2) #0 {
  %4 = alloca ptr, align 8
  %5 = alloca i64, align 8
  %6 = alloca i32, align 4
  %7 = alloca i32, align 4
  %8 = alloca %struct.partition_intersection_list, align 8
  %9 = alloca %struct.gpt_partition_entry, align 1
  %10 = alloca i32, align 4
  %11 = alloca i32, align 4
  %12 = alloca i64, align 8
  %13 = alloca i64, align 8
  %14 = alloca i32, align 4
  store ptr %0, ptr %4, align 8
  store i64 %2, ptr %5, align 8
  store i32 0, ptr %6, align 4
  store i32 0, ptr %14, align 4
  %15 = load ptr, ptr %4, align 8
  %16 = getelementptr inbounds %struct.cli_ctx_tag, ptr %15, i32 0, i32 14
  %17 = load ptr, ptr %16, align 8
  %18 = getelementptr inbounds %struct.cl_fmap, ptr %17, i32 0, i32 13
  %19 = load i64, ptr %18, align 8
  store i64 %19, ptr %13, align 8
  %20 = getelementptr inbounds %struct.gpt_header, ptr %1, i32 0, i32 10
  %21 = load i64, ptr %20, align 8
  %22 = getelementptr inbounds %struct.gpt_header, ptr %1, i32 0, i32 10
  store i64 %21, ptr %22, align 8
  %23 = getelementptr inbounds %struct.gpt_header, ptr %1, i32 0, i32 11
  %24 = load i32, ptr %23, align 8
  %25 = getelementptr inbounds %struct.gpt_header, ptr %1, i32 0, i32 11
  store i32 %24, ptr %25, align 8
  %26 = call i32 @partition_intersection_list_init(ptr noundef %8)
  %27 = getelementptr inbounds %struct.gpt_header, ptr %1, i32 0, i32 11
  %28 = load i32, ptr %27, align 8
  %29 = load ptr, ptr %4, align 8
  %30 = getelementptr inbounds %struct.cli_ctx_tag, ptr %29, i32 0, i32 6
  %31 = load ptr, ptr %30, align 8
  %32 = getelementptr inbounds %struct.cl_engine, ptr %31, i32 0, i32 78
  %33 = load i32, ptr %32, align 8
  %34 = icmp ult i32 %28, %33
  br i1 %34, label %35, label %38

35:                                               ; preds = %3
  %36 = getelementptr inbounds %struct.gpt_header, ptr %1, i32 0, i32 11
  %37 = load i32, ptr %36, align 8
  store i32 %37, ptr %14, align 4
  br label %44

38:                                               ; preds = %3
  %39 = load ptr, ptr %4, align 8
  %40 = getelementptr inbounds %struct.cli_ctx_tag, ptr %39, i32 0, i32 6
  %41 = load ptr, ptr %40, align 8
  %42 = getelementptr inbounds %struct.cl_engine, ptr %41, i32 0, i32 78
  %43 = load i32, ptr %42, align 8
  store i32 %43, ptr %14, align 4
  br label %44

44:                                               ; preds = %38, %35
  %45 = getelementptr inbounds %struct.gpt_header, ptr %1, i32 0, i32 10
  %46 = load i64, ptr %45, align 8
  %47 = load i64, ptr %5, align 8
  %48 = mul i64 %46, %47
  store i64 %48, ptr %12, align 8
  store i32 0, ptr %10, align 4
  br label %49

49:                                               ; preds = %136, %44
  %50 = load i32, ptr %10, align 4
  %51 = load i32, ptr %14, align 4
  %52 = icmp ult i32 %50, %51
  br i1 %52, label %53, label %139

53:                                               ; preds = %49
  %54 = load ptr, ptr %4, align 8
  %55 = getelementptr inbounds %struct.cli_ctx_tag, ptr %54, i32 0, i32 14
  %56 = load ptr, ptr %55, align 8
  %57 = load i64, ptr %12, align 8
  %58 = call i64 @fmap_readn(ptr noundef %56, ptr noundef %9, i64 noundef %57, i64 noundef 128)
  %59 = icmp ne i64 %58, 128
  br i1 %59, label %60, label %61

60:                                               ; preds = %53
  call void (ptr, ...) @cli_dbgmsg(ptr noundef @.str.27)
  store i32 26, ptr %6, align 4
  br label %140

61:                                               ; preds = %53
  %62 = getelementptr inbounds %struct.gpt_partition_entry, ptr %9, i32 0, i32 2
  %63 = load i64, ptr %62, align 1
  %64 = getelementptr inbounds %struct.gpt_partition_entry, ptr %9, i32 0, i32 2
  store i64 %63, ptr %64, align 1
  %65 = getelementptr inbounds %struct.gpt_partition_entry, ptr %9, i32 0, i32 3
  %66 = load i64, ptr %65, align 1
  %67 = getelementptr inbounds %struct.gpt_partition_entry, ptr %9, i32 0, i32 3
  store i64 %66, ptr %67, align 1
  %68 = getelementptr inbounds %struct.gpt_partition_entry, ptr %9, i32 0, i32 2
  %69 = load i64, ptr %68, align 1
  %70 = icmp eq i64 %69, 0
  br i1 %70, label %71, label %72

71:                                               ; preds = %61
  br label %130

72:                                               ; preds = %61
  %73 = getelementptr inbounds %struct.gpt_partition_entry, ptr %9, i32 0, i32 2
  %74 = load i64, ptr %73, align 1
  %75 = getelementptr inbounds %struct.gpt_partition_entry, ptr %9, i32 0, i32 3
  %76 = load i64, ptr %75, align 1
  %77 = icmp ugt i64 %74, %76
  br i1 %77, label %90, label %78

78:                                               ; preds = %72
  %79 = getelementptr inbounds %struct.gpt_partition_entry, ptr %9, i32 0, i32 2
  %80 = load i64, ptr %79, align 1
  %81 = getelementptr inbounds %struct.gpt_header, ptr %1, i32 0, i32 7
  %82 = load i64, ptr %81, align 8
  %83 = icmp ult i64 %80, %82
  br i1 %83, label %90, label %84

84:                                               ; preds = %78
  %85 = getelementptr inbounds %struct.gpt_partition_entry, ptr %9, i32 0, i32 3
  %86 = load i64, ptr %85, align 1
  %87 = getelementptr inbounds %struct.gpt_header, ptr %1, i32 0, i32 8
  %88 = load i64, ptr %87, align 8
  %89 = icmp ugt i64 %86, %88
  br i1 %89, label %90, label %91

90:                                               ; preds = %84, %78, %72
  br label %129

91:                                               ; preds = %84
  %92 = getelementptr inbounds %struct.gpt_partition_entry, ptr %9, i32 0, i32 3
  %93 = load i64, ptr %92, align 1
  %94 = add i64 %93, 1
  %95 = load i64, ptr %5, align 8
  %96 = mul i64 %94, %95
  %97 = load i64, ptr %13, align 8
  %98 = icmp ugt i64 %96, %97
  br i1 %98, label %99, label %100

99:                                               ; preds = %91
  br label %128

100:                                              ; preds = %91
  %101 = getelementptr inbounds %struct.gpt_partition_entry, ptr %9, i32 0, i32 2
  %102 = load i64, ptr %101, align 1
  %103 = getelementptr inbounds %struct.gpt_partition_entry, ptr %9, i32 0, i32 3
  %104 = load i64, ptr %103, align 1
  %105 = getelementptr inbounds %struct.gpt_partition_entry, ptr %9, i32 0, i32 2
  %106 = load i64, ptr %105, align 1
  %107 = sub i64 %104, %106
  %108 = add i64 %107, 1
  %109 = call i32 @partition_intersection_list_check(ptr noundef %8, ptr noundef %11, i64 noundef %102, i64 noundef %108)
  store i32 %109, ptr %7, align 4
  %110 = load i32, ptr %7, align 4
  %111 = icmp ne i32 %110, 0
  br i1 %111, label %112, label %127

112:                                              ; preds = %100
  %113 = load i32, ptr %7, align 4
  %114 = icmp eq i32 %113, 1
  br i1 %114, label %115, label %124

115:                                              ; preds = %112
  %116 = load i32, ptr %11, align 4
  %117 = load i32, ptr %10, align 4
  call void (ptr, ...) @cli_dbgmsg(ptr noundef @.str.54, i32 noundef %116, i32 noundef %117)
  %118 = load ptr, ptr %4, align 8
  %119 = call i32 @cli_append_potentially_unwanted(ptr noundef %118, ptr noundef @.str.55)
  store i32 %119, ptr %6, align 4
  %120 = load i32, ptr %6, align 4
  %121 = icmp ne i32 %120, 0
  br i1 %121, label %122, label %123

122:                                              ; preds = %115
  br label %140

123:                                              ; preds = %115
  br label %126

124:                                              ; preds = %112
  %125 = load i32, ptr %7, align 4
  store i32 %125, ptr %6, align 4
  br label %140

126:                                              ; preds = %123
  br label %127

127:                                              ; preds = %126, %100
  br label %128

128:                                              ; preds = %127, %99
  br label %129

129:                                              ; preds = %128, %90
  br label %130

130:                                              ; preds = %129, %71
  %131 = getelementptr inbounds %struct.gpt_header, ptr %1, i32 0, i32 12
  %132 = load i32, ptr %131, align 4
  %133 = zext i32 %132 to i64
  %134 = load i64, ptr %12, align 8
  %135 = add i64 %134, %133
  store i64 %135, ptr %12, align 8
  br label %136

136:                                              ; preds = %130
  %137 = load i32, ptr %10, align 4
  %138 = add i32 %137, 1
  store i32 %138, ptr %10, align 4
  br label %49

139:                                              ; preds = %49
  br label %140

140:                                              ; preds = %139, %124, %122, %60
  %141 = call i32 @partition_intersection_list_free(ptr noundef %8)
  %142 = load i32, ptr %6, align 4
  ret i32 %142
}