; Function Attrs: nounwind uwtable
define internal fastcc i32 @gpt_partition_intersection(ptr noundef %0, ptr nocapture noundef readonly byval(%struct.gpt_header) align 8 %1, i64 noundef %2) unnamed_addr #0 {
  %4 = alloca %struct.partition_intersection_list, align 8
  %5 = alloca %struct.gpt_partition_entry, align 1
  %6 = alloca i32, align 4
  %7 = getelementptr inbounds i8, ptr %0, i64 96
  %8 = load ptr, ptr %7, align 8
  %9 = getelementptr inbounds i8, ptr %8, i64 88
  %10 = load i64, ptr %9, align 8
  %11 = getelementptr inbounds i8, ptr %1, i64 80
  %12 = call i32 @partition_intersection_list_init(ptr noundef nonnull %4) #7
  %13 = load i32, ptr %11, align 8
  %14 = getelementptr inbounds i8, ptr %0, i64 48
  %15 = load ptr, ptr %14, align 8
  %16 = getelementptr inbounds i8, ptr %15, i64 1152
  %17 = load i32, ptr %16, align 8
  %. = call i32 @llvm.umin.i32(i32 %13, i32 %17)
  %.not45 = icmp eq i32 %., 0
  br i1 %.not45, label %.loopexit, label %.lr.ph

.lr.ph:                                           ; preds = %3
  %18 = getelementptr inbounds i8, ptr %1, i64 72
  %19 = load i64, ptr %18, align 8
  %20 = mul i64 %19, %2
  %21 = getelementptr inbounds i8, ptr %1, i64 40
  %22 = load i64, ptr %21, align 8
  %23 = getelementptr inbounds i8, ptr %1, i64 48
  %24 = load i64, ptr %23, align 8
  %25 = getelementptr inbounds i8, ptr %1, i64 84
  %26 = load i32, ptr %25, align 4
  %27 = zext i32 %26 to i64
  %.32..32..32..sroa_idx = getelementptr inbounds i8, ptr %5, i64 32
  %.40..40..40..sroa_idx = getelementptr inbounds i8, ptr %5, i64 40
  br label %28

28:                                               ; preds = %.lr.ph, %52
  %.01940 = phi i64 [ %20, %.lr.ph ], [ %53, %52 ]
  %.02039 = phi i32 [ 0, %.lr.ph ], [ %54, %52 ]
  %29 = load ptr, ptr %7, align 8
  %30 = getelementptr inbounds i8, ptr %29, i64 88
  %31 = load i64, ptr %30, align 8
  %or.cond38.not = icmp ugt i64 %31, %.01940
  br i1 %or.cond38.not, label %32, label %fmap_readn.exit.thread

32:                                               ; preds = %28
  %33 = sub i64 %31, %.01940
  %spec.select.i = call i64 @llvm.umin.i64(i64 %33, i64 128)
  %34 = getelementptr inbounds i8, ptr %29, i64 104
  %35 = load ptr, ptr %34, align 8
  %36 = call ptr %35(ptr noundef nonnull %29, i64 noundef %.01940, i64 noundef %spec.select.i, i32 noundef 0) #7
  %.not26.i = icmp eq ptr %36, null
  br i1 %.not26.i, label %fmap_readn.exit.thread, label %fmap_readn.exit

fmap_readn.exit:                                  ; preds = %32
  call void @llvm.memcpy.p0.p0.i64(ptr nonnull align 1 %5, ptr nonnull align 1 %36, i64 %spec.select.i, i1 false)
  %.not = icmp ugt i64 %33, 127
  br i1 %.not, label %37, label %fmap_readn.exit.thread

fmap_readn.exit.thread:                           ; preds = %32, %28, %fmap_readn.exit
  call void (ptr, ...) @cli_dbgmsg(ptr noundef nonnull @.str.27) #7
  br label %.loopexit

37:                                               ; preds = %fmap_readn.exit
  %.32..32..32. = load i64, ptr %.32..32..32..sroa_idx, align 1
  %.40..40..40. = load i64, ptr %.40..40..40..sroa_idx, align 1
  %38 = freeze i64 %.40..40..40.
  %39 = add i64 %.32..32..32., -1
  %or.cond = icmp uge i64 %39, %38
  %40 = icmp ult i64 %.32..32..32., %22
  %or.cond32 = select i1 %or.cond, i1 true, i1 %40
  %41 = icmp ugt i64 %38, %24
  %or.cond35 = select i1 %or.cond32, i1 true, i1 %41
  br i1 %or.cond35, label %52, label %42

42:                                               ; preds = %37
  %43 = add i64 %38, 1
  %44 = mul i64 %43, %2
  %45 = icmp ugt i64 %44, %10
  br i1 %45, label %52, label %46

46:                                               ; preds = %42
  %reass.sub = sub i64 %38, %.32..32..32.
  %47 = add i64 %reass.sub, 1
  %48 = call i32 @partition_intersection_list_check(ptr noundef nonnull %4, ptr noundef nonnull %6, i64 noundef %.32..32..32., i64 noundef %47) #7
  switch i32 %48, label %.loopexit [
    i32 0, label %52
    i32 1, label %49
  ]

49:                                               ; preds = %46
  %50 = load i32, ptr %6, align 4
  call void (ptr, ...) @cli_dbgmsg(ptr noundef nonnull @.str.54, i32 noundef %50, i32 noundef %.02039) #7
  %51 = call i32 @cli_append_potentially_unwanted(ptr noundef nonnull %0, ptr noundef nonnull @.str.55) #7
  %.not29 = icmp eq i32 %51, 0
  br i1 %.not29, label %52, label %.loopexit

52:                                               ; preds = %46, %49, %42, %37
  %53 = add i64 %.01940, %27
  %54 = add nuw i32 %.02039, 1
  %exitcond.not = icmp eq i32 %54, %.
  br i1 %exitcond.not, label %.loopexit, label %28

.loopexit:                                        ; preds = %49, %52, %46, %3, %fmap_readn.exit.thread
  %.2 = phi i32 [ 26, %fmap_readn.exit.thread ], [ 0, %3 ], [ %51, %49 ], [ 0, %52 ], [ %48, %46 ]
  %55 = call i32 @partition_intersection_list_free(ptr noundef nonnull %4) #7
  ret i32 %.2
}